   1              		.cpu cortex-m0
   2              		.fpu softvfp
   3              		.eabi_attribute 20, 1
   4              		.eabi_attribute 21, 1
   5              		.eabi_attribute 23, 3
   6              		.eabi_attribute 24, 1
   7              		.eabi_attribute 25, 1
   8              		.eabi_attribute 26, 1
   9              		.eabi_attribute 30, 6
  10              		.eabi_attribute 34, 0
  11              		.eabi_attribute 18, 4
  12              		.code	16
  13              		.file	"idletask.c"
  14              		.text
  15              	.Ltext0:
  16              		.cfi_sections	.debug_frame
  17              		.section	.text._mqx_idle_task,"ax",%progbits
  18              		.align	2
  19              		.global	_mqx_idle_task
  20              		.code	16
  21              		.thumb_func
  23              	_mqx_idle_task:
  24              	.LFB0:
  25              		.file 1 "../MQXLITE/kernel/idletask.c"
   1:../MQXLITE/kernel/idletask.c **** /*HEADER*********************************************************************
   2:../MQXLITE/kernel/idletask.c **** *
   3:../MQXLITE/kernel/idletask.c **** * Copyright (c) 2008 Freescale Semiconductor;
   4:../MQXLITE/kernel/idletask.c **** * All Rights Reserved
   5:../MQXLITE/kernel/idletask.c **** *
   6:../MQXLITE/kernel/idletask.c **** * Copyright (c) 2004-2008 Embedded Access Inc.;
   7:../MQXLITE/kernel/idletask.c **** * All Rights Reserved
   8:../MQXLITE/kernel/idletask.c **** *
   9:../MQXLITE/kernel/idletask.c **** * Copyright (c) 1989-2008 ARC International;
  10:../MQXLITE/kernel/idletask.c **** * All Rights Reserved
  11:../MQXLITE/kernel/idletask.c **** *
  12:../MQXLITE/kernel/idletask.c **** ***************************************************************************
  13:../MQXLITE/kernel/idletask.c **** *
  14:../MQXLITE/kernel/idletask.c **** * THIS SOFTWARE IS PROVIDED BY FREESCALE "AS IS" AND ANY EXPRESSED OR
  15:../MQXLITE/kernel/idletask.c **** * IMPLIED WARRANTIES, INCLUDING, BUT NOT LIMITED TO, THE IMPLIED WARRANTIES
  16:../MQXLITE/kernel/idletask.c **** * OF MERCHANTABILITY AND FITNESS FOR A PARTICULAR PURPOSE ARE DISCLAIMED.
  17:../MQXLITE/kernel/idletask.c **** * IN NO EVENT SHALL FREESCALE OR ITS CONTRIBUTORS BE LIABLE FOR ANY DIRECT,
  18:../MQXLITE/kernel/idletask.c **** * INDIRECT, INCIDENTAL, SPECIAL, EXEMPLARY, OR CONSEQUENTIAL DAMAGES
  19:../MQXLITE/kernel/idletask.c **** * (INCLUDING, BUT NOT LIMITED TO, PROCUREMENT OF SUBSTITUTE GOODS OR
  20:../MQXLITE/kernel/idletask.c **** * SERVICES; LOSS OF USE, DATA, OR PROFITS; OR BUSINESS INTERRUPTION)
  21:../MQXLITE/kernel/idletask.c **** * HOWEVER CAUSED AND ON ANY THEORY OF LIABILITY, WHETHER IN CONTRACT,
  22:../MQXLITE/kernel/idletask.c **** * STRICT LIABILITY, OR TORT (INCLUDING NEGLIGENCE OR OTHERWISE) ARISING
  23:../MQXLITE/kernel/idletask.c **** * IN ANY WAY OUT OF THE USE OF THIS SOFTWARE, EVEN IF ADVISED OF
  24:../MQXLITE/kernel/idletask.c **** * THE POSSIBILITY OF SUCH DAMAGE.
  25:../MQXLITE/kernel/idletask.c **** *
  26:../MQXLITE/kernel/idletask.c **** **************************************************************************
  27:../MQXLITE/kernel/idletask.c **** *
  28:../MQXLITE/kernel/idletask.c **** * $FileName: idletask.c$
  29:../MQXLITE/kernel/idletask.c **** * $Version : 3.8.3.2$
  30:../MQXLITE/kernel/idletask.c **** * $Date    : Mar-12-2012$
  31:../MQXLITE/kernel/idletask.c **** *
  32:../MQXLITE/kernel/idletask.c **** * Comments:
  33:../MQXLITE/kernel/idletask.c **** *
  34:../MQXLITE/kernel/idletask.c **** *   This file contains the idle task.
  35:../MQXLITE/kernel/idletask.c **** *
  36:../MQXLITE/kernel/idletask.c **** *END************************************************************************/
  37:../MQXLITE/kernel/idletask.c **** 
  38:../MQXLITE/kernel/idletask.c **** #include "mqx_inc.h"
  39:../MQXLITE/kernel/idletask.c **** 
  40:../MQXLITE/kernel/idletask.c **** #if MQX_USE_IDLE_TASK
  41:../MQXLITE/kernel/idletask.c **** 
  42:../MQXLITE/kernel/idletask.c **** /*!
  43:../MQXLITE/kernel/idletask.c ****  * \brief This function is the code for the idle task.
  44:../MQXLITE/kernel/idletask.c ****  *
  45:../MQXLITE/kernel/idletask.c ****  * Idle Task is a MQX task that runs when all application tasks are blocked.
  46:../MQXLITE/kernel/idletask.c ****  * \n The function implements a simple counter. Size depends on the CPU
  47:../MQXLITE/kernel/idletask.c ****  * (64-bit counter for 16-bit CPUs, 128-bit counter for 32-bit CPUs).
  48:../MQXLITE/kernel/idletask.c ****  * \n Counter can be read from a debugger and idle CPU time can be calculated.
  49:../MQXLITE/kernel/idletask.c ****  *
  50:../MQXLITE/kernel/idletask.c ****  * \param[in] parameter Parameter passed to the task when created.
  51:../MQXLITE/kernel/idletask.c ****  */
  52:../MQXLITE/kernel/idletask.c **** void _mqx_idle_task
  53:../MQXLITE/kernel/idletask.c ****     (
  54:../MQXLITE/kernel/idletask.c ****         uint_32 parameter
  55:../MQXLITE/kernel/idletask.c ****     )
  56:../MQXLITE/kernel/idletask.c **** { /* Body */
  26              		.loc 1 56 0
  27              		.cfi_startproc
  28 0000 80B5     		push	{r7, lr}
  29              	.LCFI0:
  30              		.cfi_def_cfa_offset 8
  31              		.cfi_offset 7, -8
  32              		.cfi_offset 14, -4
  33 0002 84B0     		sub	sp, sp, #16
  34              	.LCFI1:
  35              		.cfi_def_cfa_offset 24
  36 0004 00AF     		add	r7, sp, #0
  37              	.LCFI2:
  38              		.cfi_def_cfa_register 7
  39 0006 7860     		str	r0, [r7, #4]
  57:../MQXLITE/kernel/idletask.c ****     volatile KERNEL_DATA_STRUCT_PTR kernel_data;
  58:../MQXLITE/kernel/idletask.c **** 
  59:../MQXLITE/kernel/idletask.c ****     _GET_KERNEL_DATA(kernel_data);
  40              		.loc 1 59 0
  41 0008 014B     		ldr	r3, .L3
  42 000a 1B68     		ldr	r3, [r3]
  43 000c FB60     		str	r3, [r7, #12]
  44              	.L2:
  60:../MQXLITE/kernel/idletask.c **** 
  61:../MQXLITE/kernel/idletask.c ****     while (1) {
  62:../MQXLITE/kernel/idletask.c **** #if !defined(MQX_ENABLE_IDLE_LOOP) || MQX_ENABLE_IDLE_LOOP
  63:../MQXLITE/kernel/idletask.c ****         if (++kernel_data->IDLE_LOOP.IDLE_LOOP1 == 0) {
  64:../MQXLITE/kernel/idletask.c ****             if (++kernel_data->IDLE_LOOP.IDLE_LOOP2 == 0) {
  65:../MQXLITE/kernel/idletask.c ****                 if (++kernel_data->IDLE_LOOP.IDLE_LOOP3 == 0) {
  66:../MQXLITE/kernel/idletask.c ****                 ++kernel_data->IDLE_LOOP.IDLE_LOOP4;
  67:../MQXLITE/kernel/idletask.c ****                 } /* Endif */
  68:../MQXLITE/kernel/idletask.c ****             } /* Endif */
  69:../MQXLITE/kernel/idletask.c ****         } /* Endif */
  70:../MQXLITE/kernel/idletask.c **** #endif
  71:../MQXLITE/kernel/idletask.c **** #if MQX_ENABLE_LOW_POWER
  72:../MQXLITE/kernel/idletask.c ****         if (parameter)
  73:../MQXLITE/kernel/idletask.c ****         {
  74:../MQXLITE/kernel/idletask.c ****             _ASM_SLEEP();
  75:../MQXLITE/kernel/idletask.c ****         }
  76:../MQXLITE/kernel/idletask.c **** #endif
  77:../MQXLITE/kernel/idletask.c **** 
  78:../MQXLITE/kernel/idletask.c ****     } /* Endwhile */
  45              		.loc 1 78 0
  46 000e FEE7     		b	.L2
  47              	.L4:
  48              		.align	2
  49              	.L3:
  50 0010 00000000 		.word	_mqx_kernel_data
  51              		.cfi_endproc
  52              	.LFE0:
  54              		.text
  55              	.Letext0:
  56              		.file 2 "E:/CW103_Work_Space/Mqx_Lite_Test/MQXLITE/psp/cortex_m/psptypes.h"
  57              		.file 3 "E:/CW103_Work_Space/Mqx_Lite_Test/MQXLITE/include/mqxlite.h"
  58              		.file 4 "E:/CW103_Work_Space/Mqx_Lite_Test/MQXLITE/include/queue.h"
  59              		.file 5 "E:/CW103_Work_Space/Mqx_Lite_Test/MQXLITE/include/lwsem.h"
  60              		.file 6 "E:/CW103_Work_Space/Mqx_Lite_Test/MQXLITE/psp/cortex_m/cortex.h"
  61              		.file 7 "E:/CW103_Work_Space/Mqx_Lite_Test/MQXLITE/include/mqxlite_prv.h"