   1              		.cpu cortex-m0
   2              		.fpu softvfp
   3              		.eabi_attribute 20, 1
   4              		.eabi_attribute 21, 1
   5              		.eabi_attribute 23, 3
   6              		.eabi_attribute 24, 1
   7              		.eabi_attribute 25, 1
   8              		.eabi_attribute 26, 1
   9              		.eabi_attribute 30, 6
  10              		.eabi_attribute 34, 0
  11              		.eabi_attribute 18, 4
  12              		.code	16
  13              		.file	"PE_LDD.c"
  14              		.text
  15              	.Ltext0:
  16              		.cfi_sections	.debug_frame
  17              		.global	PE_LDD_DeviceDataList
  18              		.section	.bss.PE_LDD_DeviceDataList,"aw",%nobits
  19              		.align	2
  22              	PE_LDD_DeviceDataList:
  23 0000 00000000 		.space	28
  23      00000000 
  23      00000000 
  23      00000000 
  23      00000000 
  24              		.global	PE_CpuClockConfigurations
  25              		.section	.rodata.PE_CpuClockConfigurations,"a",%progbits
  26              		.align	2
  29              	PE_CpuClockConfigurations:
  30 0000 006CDC02 		.word	48000000
  31 0004 00366E01 		.word	24000000
  32 0008 00000000 		.word	0
  33 000c 00000000 		.word	0
  34 0010 00000000 		.word	0
  35 0014 006CDC02 		.word	48000000
  36 0018 00800000 		.word	32768
  37 001c 00127A00 		.word	8000000
  38 0020 E8030000 		.word	1000
  39 0024 093D0000 		.word	15625
  40              		.section	.text.PE_FillMemory,"ax",%progbits
  41              		.align	2
  42              		.global	PE_FillMemory
  43              		.code	16
  44              		.thumb_func
  46              	PE_FillMemory:
  47              	.LFB0:
  48              		.file 1 "../Generated_Code/PE_LDD.c"
   1:../Generated_Code/PE_LDD.c **** /** ###################################################################
   2:../Generated_Code/PE_LDD.c **** **     THIS COMPONENT MODULE IS GENERATED BY THE TOOL. DO NOT MODIFY IT.
   3:../Generated_Code/PE_LDD.c **** **     Filename    : PE_LDD.c.c
   4:../Generated_Code/PE_LDD.c **** **     Project     : ProcessorExpert
   5:../Generated_Code/PE_LDD.c **** **     Processor   : MKL25Z128VLK4
   6:../Generated_Code/PE_LDD.c **** **     Version     : Component 01.025, Driver 01.04, CPU db: 3.00.000
   7:../Generated_Code/PE_LDD.c **** **     Compiler    : GNU C Compiler
   8:../Generated_Code/PE_LDD.c **** **     Date/Time   : 2013-02-22, 19:12, # CodeGen: 21
   9:../Generated_Code/PE_LDD.c **** **     Abstract    :
  10:../Generated_Code/PE_LDD.c **** **
  11:../Generated_Code/PE_LDD.c **** **     Settings    :
  12:../Generated_Code/PE_LDD.c **** **
  13:../Generated_Code/PE_LDD.c **** **
  14:../Generated_Code/PE_LDD.c **** **     Copyright : 1997 - 2012 Freescale, Inc. All Rights Reserved.
  15:../Generated_Code/PE_LDD.c **** **     
  16:../Generated_Code/PE_LDD.c **** **     http      : www.freescale.com
  17:../Generated_Code/PE_LDD.c **** **     mail      : support@freescale.com
  18:../Generated_Code/PE_LDD.c **** ** ###################################################################*/
  19:../Generated_Code/PE_LDD.c **** 
  20:../Generated_Code/PE_LDD.c **** /* MODULE PE_LDD */
  21:../Generated_Code/PE_LDD.c **** 
  22:../Generated_Code/PE_LDD.c **** /* MQX Lite include files */
  23:../Generated_Code/PE_LDD.c **** #include "mqxlite.h"
  24:../Generated_Code/PE_LDD.c **** #include "mqxlite_prv.h"
  25:../Generated_Code/PE_LDD.c **** 
  26:../Generated_Code/PE_LDD.c **** #include "PE_LDD.h"
  27:../Generated_Code/PE_LDD.c **** #include "Cpu.h"
  28:../Generated_Code/PE_LDD.c **** 
  29:../Generated_Code/PE_LDD.c **** /*lint -esym(765,PE_PeripheralUsed,LDD_SetClockConfiguration,PE_CpuClockConfigurations,PE_FillMemor
  30:../Generated_Code/PE_LDD.c **** 
  31:../Generated_Code/PE_LDD.c **** /*
  32:../Generated_Code/PE_LDD.c **** ** ===========================================================================
  33:../Generated_Code/PE_LDD.c **** ** Array of initialized device structures of LDD components.
  34:../Generated_Code/PE_LDD.c **** ** ===========================================================================
  35:../Generated_Code/PE_LDD.c **** */
  36:../Generated_Code/PE_LDD.c **** LDD_TDeviceData *PE_LDD_DeviceDataList[7] = {
  37:../Generated_Code/PE_LDD.c ****     NULL,
  38:../Generated_Code/PE_LDD.c ****     NULL,
  39:../Generated_Code/PE_LDD.c ****     NULL,
  40:../Generated_Code/PE_LDD.c ****     NULL,
  41:../Generated_Code/PE_LDD.c ****     NULL,
  42:../Generated_Code/PE_LDD.c ****     NULL,
  43:../Generated_Code/PE_LDD.c ****     NULL
  44:../Generated_Code/PE_LDD.c ****   };
  45:../Generated_Code/PE_LDD.c **** 
  46:../Generated_Code/PE_LDD.c **** /*
  47:../Generated_Code/PE_LDD.c **** ** ===========================================================================
  48:../Generated_Code/PE_LDD.c **** ** The array of clock frequencies in configured clock configurations.
  49:../Generated_Code/PE_LDD.c **** ** ===========================================================================
  50:../Generated_Code/PE_LDD.c **** */
  51:../Generated_Code/PE_LDD.c **** const TCpuClockConfiguration PE_CpuClockConfigurations[CPU_CLOCK_CONFIG_NUMBER] = {
  52:../Generated_Code/PE_LDD.c ****   /* Clock configuration 0 */
  53:../Generated_Code/PE_LDD.c ****   {
  54:../Generated_Code/PE_LDD.c ****     CPU_CORE_CLK_HZ_CONFIG_0,          /* Core clock frequency in clock configuration 0 */
  55:../Generated_Code/PE_LDD.c ****     CPU_BUS_CLK_HZ_CONFIG_0,           /* Bus clock frequency in clock configuration 0 */
  56:../Generated_Code/PE_LDD.c ****     CPU_FLEXBUS_CLK_HZ_CONFIG_0,       /* Flexbus clock frequency in clock configuration 0 */
  57:../Generated_Code/PE_LDD.c ****     CPU_FLASH_CLK_HZ_CONFIG_0,         /* FLASH clock frequency in clock configuration 0 */
  58:../Generated_Code/PE_LDD.c ****     CPU_USB_CLK_HZ_CONFIG_0,           /* USB clock frequency in clock configuration 0 */
  59:../Generated_Code/PE_LDD.c ****     CPU_PLL_FLL_CLK_HZ_CONFIG_0,       /* PLL/FLL clock frequency in clock configuration 0 */
  60:../Generated_Code/PE_LDD.c ****     CPU_MCGIR_CLK_HZ_CONFIG_0,         /* MCG internal reference clock frequency in clock configura
  61:../Generated_Code/PE_LDD.c ****     CPU_OSCER_CLK_HZ_CONFIG_0,         /* System OSC external reference clock frequency in clock co
  62:../Generated_Code/PE_LDD.c ****     CPU_ERCLK32K_CLK_HZ_CONFIG_0,      /* External reference clock 32k frequency in clock configura
  63:../Generated_Code/PE_LDD.c ****     CPU_MCGFF_CLK_HZ_CONFIG_0          /* MCG fixed frequency clock */
  64:../Generated_Code/PE_LDD.c ****   }
  65:../Generated_Code/PE_LDD.c **** };
  66:../Generated_Code/PE_LDD.c **** 
  67:../Generated_Code/PE_LDD.c **** /*
  68:../Generated_Code/PE_LDD.c **** ** ===================================================================
  69:../Generated_Code/PE_LDD.c **** **     Method      :  PE_FillMemory (component MKL25Z128LK4)
  70:../Generated_Code/PE_LDD.c **** **
  71:../Generated_Code/PE_LDD.c **** **     Description :
  72:../Generated_Code/PE_LDD.c **** **         Fill the memory area by specified value.
  73:../Generated_Code/PE_LDD.c **** ** ===================================================================
  74:../Generated_Code/PE_LDD.c **** */
  75:../Generated_Code/PE_LDD.c **** void PE_FillMemory(register void* SourceAddressPtr, register uint8_t c, register uint32_t len)
  76:../Generated_Code/PE_LDD.c **** {
  49              		.loc 1 76 0
  50              		.cfi_startproc
  51 0000 90B5     		push	{r4, r7, lr}
  52              	.LCFI0:
  53              		.cfi_def_cfa_offset 12
  54              		.cfi_offset 4, -12
  55              		.cfi_offset 7, -8
  56              		.cfi_offset 14, -4
  57 0002 00AF     		add	r7, sp, #0
  58              	.LCFI1:
  59              		.cfi_def_cfa_register 7
  60 0004 131C     		mov	r3, r2
  77:../Generated_Code/PE_LDD.c ****   register uint8_t *ptr = (uint8_t*)SourceAddressPtr;
  61              		.loc 1 77 0
  62 0006 041C     		mov	r4, r0
  78:../Generated_Code/PE_LDD.c **** 
  79:../Generated_Code/PE_LDD.c ****   if (len > 0U) {
  63              		.loc 1 79 0
  64 0008 002B     		cmp	r3, #0
  65 000a 0AD0     		beq	.L1
  80:../Generated_Code/PE_LDD.c ****     while (len--) {
  66              		.loc 1 80 0
  67 000c 02E0     		b	.L3
  68              	.L4:
  81:../Generated_Code/PE_LDD.c ****       *ptr++ = c;
  69              		.loc 1 81 0
  70 000e 0A1C     		add	r2, r1, #0
  71 0010 2270     		strb	r2, [r4]
  72 0012 0134     		add	r4, r4, #1
  73              	.L3:
  80:../Generated_Code/PE_LDD.c ****     while (len--) {
  74              		.loc 1 80 0
  75 0014 1A1C     		mov	r2, r3
  76 0016 501E     		sub	r0, r2, #1
  77 0018 8241     		sbc	r2, r2, r0
  78 001a D2B2     		uxtb	r2, r2
  79 001c 013B     		sub	r3, r3, #1
  80 001e 002A     		cmp	r2, #0
  81 0020 F5D1     		bne	.L4
  82              	.L1:
  82:../Generated_Code/PE_LDD.c ****     }
  83:../Generated_Code/PE_LDD.c ****   }
  84:../Generated_Code/PE_LDD.c **** }
  83              		.loc 1 84 0
  84 0022 BD46     		mov	sp, r7
  85              		@ sp needed for prologue
  86 0024 90BD     		pop	{r4, r7, pc}
  87              		.cfi_endproc
  88              	.LFE0:
  90 0026 C046     		.section	.text.PE_PeripheralUsed,"ax",%progbits
  91              		.align	2
  92              		.global	PE_PeripheralUsed
  93              		.code	16
  94              		.thumb_func
  96              	PE_PeripheralUsed:
  97              	.LFB1:
  85:../Generated_Code/PE_LDD.c **** 
  86:../Generated_Code/PE_LDD.c **** /*
  87:../Generated_Code/PE_LDD.c **** ** ===================================================================
  88:../Generated_Code/PE_LDD.c **** **     Method      :  PE_PeripheralUsed (component MKL25Z128LK4)
  89:../Generated_Code/PE_LDD.c **** **
  90:../Generated_Code/PE_LDD.c **** **     Description :
  91:../Generated_Code/PE_LDD.c **** **         Returns the information whether a peripheral is allocated by 
  92:../Generated_Code/PE_LDD.c **** **         PE or not.
  93:../Generated_Code/PE_LDD.c **** ** ===================================================================
  94:../Generated_Code/PE_LDD.c **** */
  95:../Generated_Code/PE_LDD.c **** bool PE_PeripheralUsed(uint32_t PrphBaseAddress)
  96:../Generated_Code/PE_LDD.c **** {
  98              		.loc 1 96 0
  99              		.cfi_startproc
 100 0000 80B5     		push	{r7, lr}
 101              	.LCFI2:
 102              		.cfi_def_cfa_offset 8
 103              		.cfi_offset 7, -8
 104              		.cfi_offset 14, -4
 105 0002 84B0     		sub	sp, sp, #16
 106              	.LCFI3:
 107              		.cfi_def_cfa_offset 24
 108 0004 00AF     		add	r7, sp, #0
 109              	.LCFI4:
 110              		.cfi_def_cfa_register 7
 111 0006 7860     		str	r0, [r7, #4]
  97:../Generated_Code/PE_LDD.c ****   bool result = FALSE;
 112              		.loc 1 97 0
 113 0008 3B1C     		mov	r3, r7
 114 000a 0F33     		add	r3, r3, #15
 115 000c 0022     		mov	r2, #0
 116 000e 1A70     		strb	r2, [r3]
  98:../Generated_Code/PE_LDD.c **** 
  99:../Generated_Code/PE_LDD.c ****   switch (PrphBaseAddress) {
 117              		.loc 1 99 0
 118 0010 7B68     		ldr	r3, [r7, #4]
 119 0012 134A     		ldr	r2, .L11
 120 0014 9342     		cmp	r3, r2
 121 0016 15D0     		beq	.L7
 122 0018 114A     		ldr	r2, .L11
 123 001a 9342     		cmp	r3, r2
 124 001c 09D8     		bhi	.L8
 125 001e 114A     		ldr	r2, .L11+4
 126 0020 9342     		cmp	r3, r2
 127 0022 0FD0     		beq	.L7
 128 0024 104A     		ldr	r2, .L11+8
 129 0026 9342     		cmp	r3, r2
 130 0028 0CD0     		beq	.L7
 131 002a 104A     		ldr	r2, .L11+12
 132 002c 9342     		cmp	r3, r2
 133 002e 09D0     		beq	.L7
 134 0030 0DE0     		b	.L6
 135              	.L8:
 136 0032 0F4A     		ldr	r2, .L11+16
 137 0034 9342     		cmp	r3, r2
 138 0036 05D0     		beq	.L7
 139 0038 0E4A     		ldr	r2, .L11+20
 140 003a 9342     		cmp	r3, r2
 141 003c 02D0     		beq	.L7
 142 003e 0E4A     		ldr	r2, .L11+24
 143 0040 9342     		cmp	r3, r2
 144 0042 04D1     		bne	.L6
 145              	.L7:
 100:../Generated_Code/PE_LDD.c ****     /* Base address allocated by peripheral(s) SysTick */
 101:../Generated_Code/PE_LDD.c ****     case 0xE000E010UL:
 102:../Generated_Code/PE_LDD.c ****     /* Base address allocated by peripheral(s) UART0 */
 103:../Generated_Code/PE_LDD.c ****     case 0x4006A000UL:
 104:../Generated_Code/PE_LDD.c ****     /* Base address allocated by peripheral(s) TPM2 */
 105:../Generated_Code/PE_LDD.c ****     case 0x4003A000UL:
 106:../Generated_Code/PE_LDD.c ****     /* Base address allocated by peripheral(s) TPM0 */
 107:../Generated_Code/PE_LDD.c ****     case 0x40038000UL:
 108:../Generated_Code/PE_LDD.c ****     /* Base address allocated by peripheral(s) I2C0 */
 109:../Generated_Code/PE_LDD.c ****     case 0x40066000UL:
 110:../Generated_Code/PE_LDD.c ****     /* Base address allocated by peripheral(s) I2C1 */
 111:../Generated_Code/PE_LDD.c ****     case 0x40067000UL:
 112:../Generated_Code/PE_LDD.c ****     /* Base address allocated by peripheral(s) DAC0 */
 113:../Generated_Code/PE_LDD.c ****     case 0x4003F000UL:
 114:../Generated_Code/PE_LDD.c ****       result = TRUE;
 146              		.loc 1 114 0
 147 0044 3B1C     		mov	r3, r7
 148 0046 0F33     		add	r3, r3, #15
 149 0048 0122     		mov	r2, #1
 150 004a 1A70     		strb	r2, [r3]
 115:../Generated_Code/PE_LDD.c ****       break;
 151              		.loc 1 115 0
 152 004c 00E0     		b	.L9
 153              	.L6:
 116:../Generated_Code/PE_LDD.c ****     default:
 117:../Generated_Code/PE_LDD.c ****       break;
 154              		.loc 1 117 0
 155 004e C046     		mov	r8, r8
 156              	.L9:
 118:../Generated_Code/PE_LDD.c ****   }
 119:../Generated_Code/PE_LDD.c ****   return result;
 157              		.loc 1 119 0
 158 0050 3B1C     		mov	r3, r7
 159 0052 0F33     		add	r3, r3, #15
 160 0054 1B78     		ldrb	r3, [r3]
 120:../Generated_Code/PE_LDD.c **** }
 161              		.loc 1 120 0
 162 0056 181C     		mov	r0, r3
 163 0058 BD46     		mov	sp, r7
 164 005a 04B0     		add	sp, sp, #16
 165              		@ sp needed for prologue
 166 005c 80BD     		pop	{r7, pc}
 167              	.L12:
 168 005e C046     		.align	2
 169              	.L11:
 170 0060 00600640 		.word	1074159616
 171 0064 00A00340 		.word	1073979392
 172 0068 00F00340 		.word	1073999872
 173 006c 00800340 		.word	1073971200
 174 0070 00A00640 		.word	1074176000
 175 0074 10E000E0 		.word	-536813552
 176 0078 00700640 		.word	1074163712
 177              		.cfi_endproc
 178              	.LFE1:
 180              		.section	.text.LDD_SetClockConfiguration,"ax",%progbits
 181              		.align	2
 182              		.global	LDD_SetClockConfiguration
 183              		.code	16
 184              		.thumb_func
 186              	LDD_SetClockConfiguration:
 187              	.LFB2:
 121:../Generated_Code/PE_LDD.c **** 
 122:../Generated_Code/PE_LDD.c **** /*
 123:../Generated_Code/PE_LDD.c **** ** ===================================================================
 124:../Generated_Code/PE_LDD.c **** **     Method      :  LDD_SetClockConfiguration (component MKL25Z128LK4)
 125:../Generated_Code/PE_LDD.c **** **
 126:../Generated_Code/PE_LDD.c **** **     Description :
 127:../Generated_Code/PE_LDD.c **** **         This method changes the clock configuration of all LDD 
 128:../Generated_Code/PE_LDD.c **** **         components in the project.
 129:../Generated_Code/PE_LDD.c **** ** ===================================================================
 130:../Generated_Code/PE_LDD.c **** */
 131:../Generated_Code/PE_LDD.c **** void LDD_SetClockConfiguration(LDD_TClockConfiguration ClockConfiguration)
 132:../Generated_Code/PE_LDD.c **** {
 188              		.loc 1 132 0
 189              		.cfi_startproc
 190 0000 80B5     		push	{r7, lr}
 191              	.LCFI5:
 192              		.cfi_def_cfa_offset 8
 193              		.cfi_offset 7, -8
 194              		.cfi_offset 14, -4
 195 0002 82B0     		sub	sp, sp, #8
 196              	.LCFI6:
 197              		.cfi_def_cfa_offset 16
 198 0004 00AF     		add	r7, sp, #0
 199              	.LCFI7:
 200              		.cfi_def_cfa_register 7
 201 0006 021C     		mov	r2, r0
 202 0008 FB1D     		add	r3, r7, #7
 203 000a 1A70     		strb	r2, [r3]
 133:../Generated_Code/PE_LDD.c ****   (void)ClockConfiguration;            /* Parameter is not used, suppress unused argument warning *
 134:../Generated_Code/PE_LDD.c ****   /* Just one clock configuration defined in CPU component. */
 135:../Generated_Code/PE_LDD.c **** }
 204              		.loc 1 135 0
 205 000c BD46     		mov	sp, r7
 206 000e 02B0     		add	sp, sp, #8
 207              		@ sp needed for prologue
 208 0010 80BD     		pop	{r7, pc}
 209              		.cfi_endproc
 210              	.LFE2:
 212 0012 C046     		.text
 213              	.Letext0:
 214              		.file 2 "C:/Freescale/CW MCU v10.3/MCU/ARM_GCC_Support/ewl/EWL_C/include/cstdint"
 215              		.file 3 "E:/CW103_Work_Space/Mqx_Lite_Test/MQXLITE/psp/cortex_m/psptypes.h"
 216              		.file 4 "../Generated_Code/PE_Types.h"
 217              		.file 5 "../Generated_Code/PE_LDD.h"
 218              		.file 6 "../Generated_Code/Cpu.h"
 219              		.file 7 "E:/CW103_Work_Space/Mqx_Lite_Test/Generated_Code/IO_Map.h"