   1              		.cpu cortex-m0
   2              		.fpu softvfp
   3              		.eabi_attribute 20, 1
   4              		.eabi_attribute 21, 1
   5              		.eabi_attribute 23, 3
   6              		.eabi_attribute 24, 1
   7              		.eabi_attribute 25, 1
   8              		.eabi_attribute 26, 1
   9              		.eabi_attribute 30, 6
  10              		.eabi_attribute 34, 0
  11              		.eabi_attribute 18, 4
  12              		.code	16
  13              		.file	"int_pvta.c"
  14              		.text
  15              	.Ltext0:
  16              		.cfi_sections	.debug_frame
  17              		.section	.text._int_get_previous_vector_table,"ax",%progbits
  18              		.align	2
  19              		.global	_int_get_previous_vector_table
  20              		.code	16
  21              		.thumb_func
  23              	_int_get_previous_vector_table:
  24              	.LFB0:
  25              		.file 1 "../MQXLITE/psp/cortex_m/int_pvta.c"
   1:../MQXLITE/psp/cortex_m/int_pvta.c **** /*HEADER*********************************************************************
   2:../MQXLITE/psp/cortex_m/int_pvta.c **** * 
   3:../MQXLITE/psp/cortex_m/int_pvta.c **** * Copyright (c) 2010 Freescale Semiconductor;
   4:../MQXLITE/psp/cortex_m/int_pvta.c **** * All Rights Reserved                       
   5:../MQXLITE/psp/cortex_m/int_pvta.c **** *
   6:../MQXLITE/psp/cortex_m/int_pvta.c **** *************************************************************************** 
   7:../MQXLITE/psp/cortex_m/int_pvta.c **** *
   8:../MQXLITE/psp/cortex_m/int_pvta.c **** * THIS SOFTWARE IS PROVIDED BY FREESCALE "AS IS" AND ANY EXPRESSED OR 
   9:../MQXLITE/psp/cortex_m/int_pvta.c **** * IMPLIED WARRANTIES, INCLUDING, BUT NOT LIMITED TO, THE IMPLIED WARRANTIES 
  10:../MQXLITE/psp/cortex_m/int_pvta.c **** * OF MERCHANTABILITY AND FITNESS FOR A PARTICULAR PURPOSE ARE DISCLAIMED.  
  11:../MQXLITE/psp/cortex_m/int_pvta.c **** * IN NO EVENT SHALL FREESCALE OR ITS CONTRIBUTORS BE LIABLE FOR ANY DIRECT, 
  12:../MQXLITE/psp/cortex_m/int_pvta.c **** * INDIRECT, INCIDENTAL, SPECIAL, EXEMPLARY, OR CONSEQUENTIAL DAMAGES 
  13:../MQXLITE/psp/cortex_m/int_pvta.c **** * (INCLUDING, BUT NOT LIMITED TO, PROCUREMENT OF SUBSTITUTE GOODS OR 
  14:../MQXLITE/psp/cortex_m/int_pvta.c **** * SERVICES; LOSS OF USE, DATA, OR PROFITS; OR BUSINESS INTERRUPTION) 
  15:../MQXLITE/psp/cortex_m/int_pvta.c **** * HOWEVER CAUSED AND ON ANY THEORY OF LIABILITY, WHETHER IN CONTRACT, 
  16:../MQXLITE/psp/cortex_m/int_pvta.c **** * STRICT LIABILITY, OR TORT (INCLUDING NEGLIGENCE OR OTHERWISE) ARISING 
  17:../MQXLITE/psp/cortex_m/int_pvta.c **** * IN ANY WAY OUT OF THE USE OF THIS SOFTWARE, EVEN IF ADVISED OF 
  18:../MQXLITE/psp/cortex_m/int_pvta.c **** * THE POSSIBILITY OF SUCH DAMAGE.
  19:../MQXLITE/psp/cortex_m/int_pvta.c **** *
  20:../MQXLITE/psp/cortex_m/int_pvta.c **** **************************************************************************
  21:../MQXLITE/psp/cortex_m/int_pvta.c **** *
  22:../MQXLITE/psp/cortex_m/int_pvta.c **** * $FileName: int_pvta.c$
  23:../MQXLITE/psp/cortex_m/int_pvta.c **** * $Version : 3.7.3.0$
  24:../MQXLITE/psp/cortex_m/int_pvta.c **** * $Date    : Feb-7-2011$
  25:../MQXLITE/psp/cortex_m/int_pvta.c **** *
  26:../MQXLITE/psp/cortex_m/int_pvta.c **** * Comments:
  27:../MQXLITE/psp/cortex_m/int_pvta.c **** *
  28:../MQXLITE/psp/cortex_m/int_pvta.c **** *   This file contains the function for returning the previous vector
  29:../MQXLITE/psp/cortex_m/int_pvta.c **** *   table field in the kernel data structure.
  30:../MQXLITE/psp/cortex_m/int_pvta.c **** *
  31:../MQXLITE/psp/cortex_m/int_pvta.c **** *END************************************************************************/
  32:../MQXLITE/psp/cortex_m/int_pvta.c **** 
  33:../MQXLITE/psp/cortex_m/int_pvta.c **** 
  34:../MQXLITE/psp/cortex_m/int_pvta.c **** #include "mqx_inc.h"
  35:../MQXLITE/psp/cortex_m/int_pvta.c **** 
  36:../MQXLITE/psp/cortex_m/int_pvta.c **** #if MQX_EXIT_ENABLED && MQX_USE_INTERRUPTS
  37:../MQXLITE/psp/cortex_m/int_pvta.c **** /*!
  38:../MQXLITE/psp/cortex_m/int_pvta.c ****  * \brief Gets the address of the interrupt vector table that MQX might have 
  39:../MQXLITE/psp/cortex_m/int_pvta.c ****  * created when it started.
  40:../MQXLITE/psp/cortex_m/int_pvta.c ****  * 
  41:../MQXLITE/psp/cortex_m/int_pvta.c ****  * The function is useful if you are installing third-party debuggers or monitors.
  42:../MQXLITE/psp/cortex_m/int_pvta.c ****  * 
  43:../MQXLITE/psp/cortex_m/int_pvta.c ****  * \return Address of the interrupt vector table that MQX creates when it starts.
  44:../MQXLITE/psp/cortex_m/int_pvta.c ****  * 
  45:../MQXLITE/psp/cortex_m/int_pvta.c ****  * \see _int_get_vector_table
  46:../MQXLITE/psp/cortex_m/int_pvta.c ****  * \see _int_set_vector_table
  47:../MQXLITE/psp/cortex_m/int_pvta.c ****  */       
  48:../MQXLITE/psp/cortex_m/int_pvta.c **** _psp_code_addr _int_get_previous_vector_table
  49:../MQXLITE/psp/cortex_m/int_pvta.c ****    (
  50:../MQXLITE/psp/cortex_m/int_pvta.c ****       void
  51:../MQXLITE/psp/cortex_m/int_pvta.c ****    )
  52:../MQXLITE/psp/cortex_m/int_pvta.c **** { /* Body */
  26              		.loc 1 52 0
  27              		.cfi_startproc
  28 0000 90B5     		push	{r4, r7, lr}
  29              	.LCFI0:
  30              		.cfi_def_cfa_offset 12
  31              		.cfi_offset 4, -12
  32              		.cfi_offset 7, -8
  33              		.cfi_offset 14, -4
  34 0002 00AF     		add	r7, sp, #0
  35              	.LCFI1:
  36              		.cfi_def_cfa_register 7
  53:../MQXLITE/psp/cortex_m/int_pvta.c ****    register KERNEL_DATA_STRUCT_PTR  kernel_data;
  54:../MQXLITE/psp/cortex_m/int_pvta.c **** 
  55:../MQXLITE/psp/cortex_m/int_pvta.c ****    _GET_KERNEL_DATA(kernel_data);
  37              		.loc 1 55 0
  38 0004 034B     		ldr	r3, .L3
  39 0006 1C68     		ldr	r4, [r3]
  56:../MQXLITE/psp/cortex_m/int_pvta.c ****    return( (_psp_code_addr)kernel_data->USERS_VBR );
  40              		.loc 1 56 0
  41 0008 8D23     		mov	r3, #141
  42 000a 9B00     		lsl	r3, r3, #2
  43 000c E358     		ldr	r3, [r4, r3]
  57:../MQXLITE/psp/cortex_m/int_pvta.c **** 
  58:../MQXLITE/psp/cortex_m/int_pvta.c **** } /* Endbody */
  44              		.loc 1 58 0
  45 000e 181C     		mov	r0, r3
  46 0010 BD46     		mov	sp, r7
  47              		@ sp needed for prologue
  48 0012 90BD     		pop	{r4, r7, pc}
  49              	.L4:
  50              		.align	2
  51              	.L3:
  52 0014 00000000 		.word	_mqx_kernel_data
  53              		.cfi_endproc
  54              	.LFE0:
  56              		.text
  57              	.Letext0:
  58              		.file 2 "E:/CW103_Work_Space/Mqx_Lite_Test/MQXLITE/psp/cortex_m/psptypes.h"
  59              		.file 3 "E:/CW103_Work_Space/Mqx_Lite_Test/MQXLITE/include/mqxlite.h"
  60              		.file 4 "E:/CW103_Work_Space/Mqx_Lite_Test/MQXLITE/include/queue.h"
  61              		.file 5 "E:/CW103_Work_Space/Mqx_Lite_Test/MQXLITE/include/lwsem.h"
  62              		.file 6 "E:/CW103_Work_Space/Mqx_Lite_Test/MQXLITE/psp/cortex_m/cortex.h"
  63              		.file 7 "E:/CW103_Work_Space/Mqx_Lite_Test/MQXLITE/include/mqxlite_prv.h"